; Function Attrs: mustprogress uwtable
define noundef zeroext i1 @_ZNK32pxrInternal_v0_24__pxrReserved__21UsdGeomPointInstancer5VisIdElRKNS_11UsdTimeCodeE(ptr noundef nonnull align 8 dereferenceable(24) %0, i64 noundef %1, ptr nocapture noundef nonnull readonly align 8 dereferenceable(8) %2) local_unnamed_addr #0 align 2 personality ptr @__gxx_personality_v0 {
  %4 = alloca %"class.pxrInternal_v0_24__pxrReserved__::VtArray.107", align 8
  %5 = alloca [1 x i64], align 8
  store i64 %1, ptr %5, align 8
  call void @_ZN32pxrInternal_v0_24__pxrReserved__7VtArrayIlEC1ESt16initializer_listIlE(ptr noundef nonnull align 8 dereferenceable(40) %4, ptr nonnull %5, i64 1)
  %6 = invoke noundef zeroext i1 @_ZNK32pxrInternal_v0_24__pxrReserved__21UsdGeomPointInstancer6VisIdsERKNS_7VtArrayIlEERKNS_11UsdTimeCodeE(ptr noundef nonnull align 8 dereferenceable(24) %0, ptr noundef nonnull align 8 dereferenceable(40) %4, ptr noundef nonnull align 8 dereferenceable(8) %2)
          to label %7 unwind label %8

7:                                                ; preds = %3
  call void @_ZN32pxrInternal_v0_24__pxrReserved__7VtArrayIlED1Ev(ptr noundef nonnull align 8 dereferenceable(40) %4) #23
  ret i1 %6

8:                                                ; preds = %3
  %9 = landingpad { ptr, i32 }
          cleanup
  call void @_ZN32pxrInternal_v0_24__pxrReserved__7VtArrayIlED1Ev(ptr noundef nonnull align 8 dereferenceable(40) %4) #23
  resume { ptr, i32 } %9
}